; Function Attrs: mustprogress uwtable
define noundef signext i8 @_ZNK6icu_757UVector12containsNoneERKS0_(ptr nocapture noundef nonnull readonly align 8 dereferenceable(40) %this, ptr nocapture noundef nonnull readonly align 8 dereferenceable(40) %other) local_unnamed_addr #1 align 2 {
entry:
  %count.i = getelementptr inbounds i8, ptr %other, i64 8
  %0 = load i32, ptr %count.i, align 8
  %cmp11 = icmp sgt i32 %0, 0
  br i1 %cmp11, label %for.body.lr.ph, label %return

for.body.lr.ph:                                   ; preds = %entry
  %elements = getelementptr inbounds i8, ptr %other, i64 16
  %comparer.i = getelementptr inbounds i8, ptr %this, i64 32
  %count.i4 = getelementptr inbounds i8, ptr %this, i64 8
  %elements.i = getelementptr inbounds i8, ptr %this, i64 16
  %1 = load ptr, ptr %comparer.i, align 8
  %2 = icmp eq ptr %1, null
  br i1 %2, label %for.body.lr.ph.split.us, label %for.body

for.body.lr.ph.split.us:                          ; preds = %for.body.lr.ph
  %3 = load ptr, ptr %elements, align 8
  %4 = load i32, ptr %count.i4, align 8
  %cmp1115.i.us = icmp sgt i32 %4, 0
  %5 = load ptr, ptr %elements.i, align 8
  %wide.trip.count32.i.us = zext nneg i32 %4 to i64
  br i1 %cmp1115.i.us, label %for.body.us.us.preheader, label %return

for.body.us.us.preheader:                         ; preds = %for.body.lr.ph.split.us
  %wide.trip.count = zext nneg i32 %0 to i64
  br label %for.body.us.us

for.body.us.us:                                   ; preds = %for.body.us.us.preheader, %for.inc.us.us
  %indvars.iv26 = phi i64 [ 0, %for.body.us.us.preheader ], [ %indvars.iv.next27, %for.inc.us.us ]
  %arrayidx.us.us = getelementptr inbounds %union.UElement, ptr %3, i64 %indvars.iv26
  %agg.tmp.sroa.0.0.copyload.us.us = load ptr, ptr %arrayidx.us.us, align 8
  %6 = ptrtoint ptr %agg.tmp.sroa.0.0.copyload.us.us to i64
  %key.sroa.0.0.extract.trunc.i.us.us = trunc i64 %6 to i32
  br label %for.body12.us.i.us.us

for.body12.us.i.us.us:                            ; preds = %for.inc29.us.i.us.us, %for.body.us.us
  %indvars.iv29.i.us.us = phi i64 [ %indvars.iv.next30.i.us.us, %for.inc29.us.i.us.us ], [ 0, %for.body.us.us ]
  %arrayidx24.us.i.us.us = getelementptr inbounds %union.UElement, ptr %5, i64 %indvars.iv29.i.us.us
  %7 = load i32, ptr %arrayidx24.us.i.us.us, align 8
  %cmp25.us.i.us.us = icmp eq i32 %7, %key.sroa.0.0.extract.trunc.i.us.us
  br i1 %cmp25.us.i.us.us, label %_ZNK6icu_757UVector7indexOfE8UElementia.exit.loopexit.us.us, label %for.inc29.us.i.us.us

for.inc29.us.i.us.us:                             ; preds = %for.body12.us.i.us.us
  %indvars.iv.next30.i.us.us = add nuw nsw i64 %indvars.iv29.i.us.us, 1
  %exitcond33.not.i.us.us = icmp eq i64 %indvars.iv.next30.i.us.us, %wide.trip.count32.i.us
  br i1 %exitcond33.not.i.us.us, label %for.inc.us.us, label %for.body12.us.i.us.us, !llvm.loop !14

for.inc.us.us:                                    ; preds = %for.inc29.us.i.us.us, %_ZNK6icu_757UVector7indexOfE8UElementia.exit.loopexit.us.us
  %indvars.iv.next27 = add nuw nsw i64 %indvars.iv26, 1
  %exitcond.not = icmp eq i64 %indvars.iv.next27, %wide.trip.count
  br i1 %exitcond.not, label %return, label %for.body.us.us, !llvm.loop !18

_ZNK6icu_757UVector7indexOfE8UElementia.exit.loopexit.us.us: ; preds = %for.body12.us.i.us.us
  %8 = and i64 %indvars.iv29.i.us.us, 2147483648
  %cmp3.us.us = icmp eq i64 %8, 0
  br i1 %cmp3.us.us, label %return, label %for.inc.us.us

for.bodythread-pre-split:                         ; preds = %for.inc
  %.pr = load ptr, ptr %comparer.i, align 8
  br label %for.body

for.body:                                         ; preds = %for.body.lr.ph, %for.bodythread-pre-split
  %9 = phi ptr [ %.pr, %for.bodythread-pre-split ], [ %1, %for.body.lr.ph ]
  %indvars.iv = phi i64 [ %indvars.iv.next, %for.bodythread-pre-split ], [ 0, %for.body.lr.ph ]
  %10 = load ptr, ptr %elements, align 8
  %arrayidx = getelementptr inbounds %union.UElement, ptr %10, i64 %indvars.iv
  %agg.tmp.sroa.0.0.copyload = load ptr, ptr %arrayidx, align 8
  %cmp.not.i = icmp eq ptr %9, null
  br i1 %cmp.not.i, label %for.cond9.preheader.i, label %for.cond.preheader.i

for.cond.preheader.i:                             ; preds = %for.body
  %11 = load i32, ptr %count.i4, align 8
  %cmp212.i = icmp sgt i32 %11, 0
  br i1 %cmp212.i, label %for.body.i, label %for.inc

for.cond9.preheader.i:                            ; preds = %for.body
  %12 = ptrtoint ptr %agg.tmp.sroa.0.0.copyload to i64
  %key.sroa.0.0.extract.trunc.i = trunc i64 %12 to i32
  %13 = load i32, ptr %count.i4, align 8
  %cmp1115.i = icmp sgt i32 %13, 0
  br i1 %cmp1115.i, label %for.body12.lr.ph.i, label %for.inc

for.body12.lr.ph.i:                               ; preds = %for.cond9.preheader.i
  %14 = load ptr, ptr %elements.i, align 8
  %wide.trip.count32.i = zext nneg i32 %13 to i64
  br label %for.body12.us.i

for.body12.us.i:                                  ; preds = %for.inc29.us.i, %for.body12.lr.ph.i
  %indvars.iv29.i = phi i64 [ %indvars.iv.next30.i, %for.inc29.us.i ], [ 0, %for.body12.lr.ph.i ]
  %arrayidx24.us.i = getelementptr inbounds %union.UElement, ptr %14, i64 %indvars.iv29.i
  %15 = load i32, ptr %arrayidx24.us.i, align 8
  %cmp25.us.i = icmp eq i32 %15, %key.sroa.0.0.extract.trunc.i
  br i1 %cmp25.us.i, label %_ZNK6icu_757UVector7indexOfE8UElementia.exit, label %for.inc29.us.i

for.inc29.us.i:                                   ; preds = %for.body12.us.i
  %indvars.iv.next30.i = add nuw nsw i64 %indvars.iv29.i, 1
  %exitcond33.not.i = icmp eq i64 %indvars.iv.next30.i, %wide.trip.count32.i
  br i1 %exitcond33.not.i, label %for.inc, label %for.body12.us.i, !llvm.loop !14

for.body.i:                                       ; preds = %for.cond.preheader.i, %for.inc.i
  %indvars.iv.i = phi i64 [ %indvars.iv.next.i, %for.inc.i ], [ 0, %for.cond.preheader.i ]
  %16 = load ptr, ptr %comparer.i, align 8
  %17 = load ptr, ptr %elements.i, align 8
  %arrayidx.i = getelementptr inbounds %union.UElement, ptr %17, i64 %indvars.iv.i
  %agg.tmp4.sroa.0.0.copyload.i = load ptr, ptr %arrayidx.i, align 8
  %call.i = tail call noundef signext i8 %16(ptr %agg.tmp.sroa.0.0.copyload, ptr %agg.tmp4.sroa.0.0.copyload.i)
  %tobool.not.i = icmp eq i8 %call.i, 0
  br i1 %tobool.not.i, label %for.inc.i, label %_ZNK6icu_757UVector7indexOfE8UElementia.exit

for.inc.i:                                        ; preds = %for.body.i
  %indvars.iv.next.i = add nuw nsw i64 %indvars.iv.i, 1
  %18 = load i32, ptr %count.i4, align 8
  %19 = sext i32 %18 to i64
  %cmp2.i = icmp slt i64 %indvars.iv.next.i, %19
  br i1 %cmp2.i, label %for.body.i, label %for.inc, !llvm.loop !17

_ZNK6icu_757UVector7indexOfE8UElementia.exit:     ; preds = %for.body.i, %for.body12.us.i
  %retval.0.i.in = phi i64 [ %indvars.iv29.i, %for.body12.us.i ], [ %indvars.iv.i, %for.body.i ]
  %20 = and i64 %retval.0.i.in, 2147483648
  %cmp3 = icmp eq i64 %20, 0
  br i1 %cmp3, label %return, label %for.inc

for.inc:                                          ; preds = %for.inc.i, %for.inc29.us.i, %for.cond.preheader.i, %for.cond9.preheader.i, %_ZNK6icu_757UVector7indexOfE8UElementia.exit
  %indvars.iv.next = add nuw nsw i64 %indvars.iv, 1
  %21 = load i32, ptr %count.i, align 8
  %22 = sext i32 %21 to i64
  %cmp = icmp slt i64 %indvars.iv.next, %22
  br i1 %cmp, label %for.bodythread-pre-split, label %return, !llvm.loop !19

return:                                           ; preds = %_ZNK6icu_757UVector7indexOfE8UElementia.exit, %for.inc, %_ZNK6icu_757UVector7indexOfE8UElementia.exit.loopexit.us.us, %for.inc.us.us, %for.body.lr.ph.split.us, %entry
  %retval.0 = phi i8 [ 1, %entry ], [ 1, %for.body.lr.ph.split.us ], [ 1, %for.inc.us.us ], [ 0, %_ZNK6icu_757UVector7indexOfE8UElementia.exit.loopexit.us.us ], [ 1, %for.inc ], [ 0, %_ZNK6icu_757UVector7indexOfE8UElementia.exit ]
  ret i8 %retval.0
}